target datalayout = "e-m:e-p270:32:32-p271:32:32-p272:64:64-i64:64-i128:128-f80:128-n8:16:32:64-S128"
target triple = "x86_64-pc-linux-gnu"

@hf_aim_fnac_subtype_ssi_buddyname = internal global i32 0, align 4
@hf_aim_fnac_subtype_ssi_buddyname_len8 = internal global i32 0, align 4
@hf_aim_fnac_subtype_ssi_reason_str_len = internal global i32 0, align 4
@hf_aim_fnac_subtype_ssi_reason_str = internal global i32 0, align 4
@hf_aim_fnac_subtype_ssi_grant_auth_unkn = internal global i32 0, align 4

; Function Attrs: null_pointer_is_valid sspstrong uwtable
define internal i32 @dissect_aim_snac_ssi_auth_request(ptr noundef %0, ptr noundef %1, ptr noundef %2) #0 {
  %4 = alloca ptr, align 8
  %5 = alloca ptr, align 8
  %6 = alloca ptr, align 8
  %7 = alloca i32, align 4
  %8 = alloca i16, align 2
  %9 = alloca i8, align 1
  store ptr %0, ptr %4, align 8
  store ptr %1, ptr %5, align 8
  store ptr %2, ptr %6, align 8
  call void @llvm.lifetime.start.p0(i64 4, ptr %7) #13
  store i32 0, ptr %7, align 4
  call void @llvm.lifetime.start.p0(i64 2, ptr %8) #13
  call void @llvm.lifetime.start.p0(i64 1, ptr %9) #13
  %10 = load ptr, ptr %4, align 8
  %11 = load i32, ptr %7, align 4
  %12 = call zeroext i8 @tvb_get_uint8(ptr noundef %10, i32 noundef %11)
  store i8 %12, ptr %9, align 1
  %13 = load ptr, ptr %6, align 8
  %14 = load i32, ptr @hf_aim_fnac_subtype_ssi_buddyname_len8, align 4
  %15 = load ptr, ptr %4, align 8
  %16 = load i32, ptr %7, align 4
  %17 = call ptr @proto_tree_add_item(ptr noundef %13, i32 noundef %14, ptr noundef %15, i32 noundef %16, i32 noundef 1, i32 noundef 0)
  %18 = load i32, ptr %7, align 4
  %19 = add i32 %18, 1
  store i32 %19, ptr %7, align 4
  %20 = load i8, ptr %9, align 1
  %21 = zext i8 %20 to i32
  %22 = icmp sgt i32 %21, 0
  br i1 %22, label %23, label %35

23:                                               ; preds = %3
  %24 = load ptr, ptr %6, align 8
  %25 = load i32, ptr @hf_aim_fnac_subtype_ssi_buddyname, align 4
  %26 = load ptr, ptr %4, align 8
  %27 = load i32, ptr %7, align 4
  %28 = load i8, ptr %9, align 1
  %29 = zext i8 %28 to i32
  %30 = call ptr @proto_tree_add_item(ptr noundef %24, i32 noundef %25, ptr noundef %26, i32 noundef %27, i32 noundef %29, i32 noundef 2)
  %31 = load i8, ptr %9, align 1
  %32 = zext i8 %31 to i32
  %33 = load i32, ptr %7, align 4
  %34 = add i32 %33, %32
  store i32 %34, ptr %7, align 4
  br label %35

35:                                               ; preds = %23, %3
  %36 = load ptr, ptr %4, align 8
  %37 = load i32, ptr %7, align 4
  %38 = call zeroext i16 @tvb_get_ntohs(ptr noundef %36, i32 noundef %37)
  store i16 %38, ptr %8, align 2
  %39 = load ptr, ptr %6, align 8
  %40 = load i32, ptr @hf_aim_fnac_subtype_ssi_reason_str_len, align 4
  %41 = load ptr, ptr %4, align 8
  %42 = load i32, ptr %7, align 4
  %43 = call ptr @proto_tree_add_item(ptr noundef %39, i32 noundef %40, ptr noundef %41, i32 noundef %42, i32 noundef 2, i32 noundef 0)
  %44 = load i32, ptr %7, align 4
  %45 = add i32 %44, 2
  store i32 %45, ptr %7, align 4
  %46 = load i16, ptr %8, align 2
  %47 = zext i16 %46 to i32
  %48 = icmp sgt i32 %47, 0
  br i1 %48, label %49, label %61

49:                                               ; preds = %35
  %50 = load ptr, ptr %6, align 8
  %51 = load i32, ptr @hf_aim_fnac_subtype_ssi_reason_str, align 4
  %52 = load ptr, ptr %4, align 8
  %53 = load i32, ptr %7, align 4
  %54 = load i16, ptr %8, align 2
  %55 = zext i16 %54 to i32
  %56 = call ptr @proto_tree_add_item(ptr noundef %50, i32 noundef %51, ptr noundef %52, i32 noundef %53, i32 noundef %55, i32 noundef 2)
  %57 = load i16, ptr %8, align 2
  %58 = zext i16 %57 to i32
  %59 = load i32, ptr %7, align 4
  %60 = add i32 %59, %58
  store i32 %60, ptr %7, align 4
  br label %61

61:                                               ; preds = %49, %35
  %62 = load ptr, ptr %6, align 8
  %63 = load i32, ptr @hf_aim_fnac_subtype_ssi_grant_auth_unkn, align 4
  %64 = load ptr, ptr %4, align 8
  %65 = load i32, ptr %7, align 4
  %66 = call ptr @proto_tree_add_item(ptr noundef %62, i32 noundef %63, ptr noundef %64, i32 noundef %65, i32 noundef 2, i32 noundef 0)
  %67 = load i32, ptr %7, align 4
  %68 = add i32 %67, 2
  store i32 %68, ptr %7, align 4
  %69 = load i32, ptr %7, align 4
  call void @llvm.lifetime.end.p0(i64 1, ptr %9) #13
  call void @llvm.lifetime.end.p0(i64 2, ptr %8) #13
  call void @llvm.lifetime.end.p0(i64 4, ptr %7) #13
  ret i32 %69
}