; Function Attrs: null_pointer_is_valid sspstrong uwtable
define internal range(i32 5, 65796) i32 @dissect_aim_snac_ssi_auth_request(ptr noundef %0, ptr readnone captures(none) %1, ptr noundef %2) #0 {
  %4 = tail call zeroext i8 @tvb_get_uint8(ptr noundef %0, i32 noundef 0)
  %5 = load i32, ptr @hf_aim_fnac_subtype_ssi_buddyname_len8, align 4
  %6 = tail call ptr @proto_tree_add_item(ptr noundef %2, i32 noundef %5, ptr noundef %0, i32 noundef 0, i32 noundef 1, i32 noundef 0)
  %.not = icmp eq i8 %4, 0
  br i1 %.not, label %12, label %7

7:                                                ; preds = %3
  %8 = zext i8 %4 to i32
  %9 = load i32, ptr @hf_aim_fnac_subtype_ssi_buddyname, align 4
  %10 = tail call ptr @proto_tree_add_item(ptr noundef %2, i32 noundef %9, ptr noundef %0, i32 noundef 1, i32 noundef %8, i32 noundef 2)
  %11 = add nuw nsw i32 %8, 1
  br label %12

12:                                               ; preds = %7, %3
  %.0 = phi i32 [ %11, %7 ], [ 1, %3 ]
  %13 = tail call zeroext i16 @tvb_get_ntohs(ptr noundef %0, i32 noundef %.0)
  %14 = load i32, ptr @hf_aim_fnac_subtype_ssi_reason_str_len, align 4
  %15 = tail call ptr @proto_tree_add_item(ptr noundef %2, i32 noundef %14, ptr noundef %0, i32 noundef %.0, i32 noundef 2, i32 noundef 0)
  %16 = add nuw nsw i32 %.0, 2
  %.not32 = icmp eq i16 %13, 0
  br i1 %.not32, label %22, label %17

17:                                               ; preds = %12
  %18 = zext i16 %13 to i32
  %19 = load i32, ptr @hf_aim_fnac_subtype_ssi_reason_str, align 4
  %20 = tail call ptr @proto_tree_add_item(ptr noundef %2, i32 noundef %19, ptr noundef %0, i32 noundef %16, i32 noundef %18, i32 noundef 2)
  %21 = add nuw nsw i32 %16, %18
  br label %22

22:                                               ; preds = %17, %12
  %.1 = phi i32 [ %21, %17 ], [ %16, %12 ]
  %23 = load i32, ptr @hf_aim_fnac_subtype_ssi_grant_auth_unkn, align 4
  %24 = tail call ptr @proto_tree_add_item(ptr noundef %2, i32 noundef %23, ptr noundef %0, i32 noundef %.1, i32 noundef 2, i32 noundef 0)
  %25 = add nuw nsw i32 %.1, 2
  ret i32 %25
}